ccopy_reg
_reconstructor
p0
(cpgmpy.base.UndirectedGraph
UndirectedGraph
p1
c__builtin__
object
p2
Ntp3
Rp4
(dp5
S'node'
p6
(dp7
S'age_range'
p8
(dp9
S'weight'
p10
NssS'is_php'
p11
(dp12
g10
NssS'gender'
p13
(dp14
g10
NssS'star_wars_vs_star_trek'
p15
(dp16
g10
NssS'experience_range'
p17
(dp18
g10
NssS'is_javascript'
p19
(dp20
g10
NssS'is_python'
p21
(dp22
g10
NssS'desktop_os'
p23
(dp24
g10
NssS'salary_range'
p25
(dp26
g10
NssS'so_region'
p27
(dp28
g10
NssS'agree_diversity'
p29
(dp30
g10
NsssS'node_dict_factory'
p31
c__builtin__
dict
p32
sS'edge_attr_dict_factory'
p33
g32
sS'edge'
p34
(dp35
g8
(dp36
g25
(dp37
g10
Nssg17
(dp38
g10
Nssg27
(dp39
g10
Nssg15
(dp40
g10
Nsssg11
(dp41
g19
(dp42
g10
Nsssg13
(dp43
g17
(dp44
g10
Nsssg15
(dp45
g8
g40
ssg17
(dp46
g25
(dp47
g10
Nssg13
g44
sg8
g38
sg27
(dp48
g10
Nsssg19
(dp49
g11
g42
sg21
(dp50
g10
Nsssg21
(dp51
g19
g50
sg23
(dp52
g10
Nsssg23
(dp53
g21
g52
sg29
(dp54
g10
Nsssg25
(dp55
g8
g37
sg27
(dp56
g10
Nssg17
g47
ssg27
(dp57
g25
g56
sg8
g39
sg17
g48
ssg29
(dp58
g23
g54
sssS'graph'
p59
(dp60
sS'adjlist_dict_factory'
p61
g32
sS'adj'
p62
g35
sb.